target datalayout = "e-m:e-p270:32:32-p271:32:32-p272:64:64-i64:64-i128:128-f80:128-n8:16:32:64-S128"
target triple = "x86_64-pc-linux-gnu"

%struct.Vec_Ptr_t_ = type { i32, i32, ptr }
%struct.Sym_Man_t_ = type { ptr, ptr, i32, i32, i32, ptr, ptr, ptr, ptr, ptr, ptr, ptr, ptr, ptr, ptr, ptr, ptr, ptr, i32, i32, i32, i32, i32, i32, i32, i32, i32, i32, i32, i32, i32, i64, i64, i64, i64, i64, i64, i64 }

; Function Attrs: inlinehint nounwind uwtable
define internal ptr @Vec_PtrEntry(ptr noundef %0, i32 noundef %1) #2 {
  %3 = alloca ptr, align 8
  %4 = alloca i32, align 4
  store ptr %0, ptr %3, align 8, !tbaa !7
  store i32 %1, ptr %4, align 4, !tbaa !3
  %5 = load ptr, ptr %3, align 8, !tbaa !7
  %6 = getelementptr inbounds nuw %struct.Vec_Ptr_t_, ptr %5, i32 0, i32 2
  %7 = load ptr, ptr %6, align 8, !tbaa !10
  %8 = load i32, ptr %4, align 4, !tbaa !3
  %9 = sext i32 %8 to i64
  %10 = getelementptr inbounds ptr, ptr %7, i64 %9
  %11 = load ptr, ptr %10, align 8, !tbaa !12
  ret ptr %11
}

; Function Attrs: nounwind uwtable
define i32 @Sim_UtilMatrsAreDisjoint(ptr noundef %0) #0 {
  %2 = alloca i32, align 4
  %3 = alloca ptr, align 8
  %4 = alloca i32, align 4
  %5 = alloca i32, align 4
  store ptr %0, ptr %3, align 8, !tbaa !100
  call void @llvm.lifetime.start.p0(i64 4, ptr %4) #8
  store i32 0, ptr %4, align 4, !tbaa !3
  br label %6

6:                                                ; preds = %27, %1
  %7 = load i32, ptr %4, align 4, !tbaa !3
  %8 = load ptr, ptr %3, align 8, !tbaa !100
  %9 = getelementptr inbounds nuw %struct.Sym_Man_t_, ptr %8, i32 0, i32 3
  %10 = load i32, ptr %9, align 4, !tbaa !103
  %11 = icmp slt i32 %7, %10
  br i1 %11, label %12, label %30

12:                                               ; preds = %6
  %13 = load ptr, ptr %3, align 8, !tbaa !100
  %14 = getelementptr inbounds nuw %struct.Sym_Man_t_, ptr %13, i32 0, i32 8
  %15 = load ptr, ptr %14, align 8, !tbaa !105
  %16 = load i32, ptr %4, align 4, !tbaa !3
  %17 = call ptr @Vec_PtrEntry(ptr noundef %15, i32 noundef %16)
  %18 = load ptr, ptr %3, align 8, !tbaa !100
  %19 = getelementptr inbounds nuw %struct.Sym_Man_t_, ptr %18, i32 0, i32 9
  %20 = load ptr, ptr %19, align 8, !tbaa !117
  %21 = load i32, ptr %4, align 4, !tbaa !3
  %22 = call ptr @Vec_PtrEntry(ptr noundef %20, i32 noundef %21)
  %23 = call i32 @Extra_BitMatrixIsDisjoint(ptr noundef %17, ptr noundef %22)
  %24 = icmp ne i32 %23, 0
  br i1 %24, label %26, label %25

25:                                               ; preds = %12
  store i32 0, ptr %2, align 4
  store i32 1, ptr %5, align 4
  br label %31

26:                                               ; preds = %12
  br label %27

27:                                               ; preds = %26
  %28 = load i32, ptr %4, align 4, !tbaa !3
  %29 = add nsw i32 %28, 1
  store i32 %29, ptr %4, align 4, !tbaa !3
  br label %6, !llvm.loop !121

30:                                               ; preds = %6
  store i32 1, ptr %2, align 4
  store i32 1, ptr %5, align 4
  br label %31

31:                                               ; preds = %30, %25
  call void @llvm.lifetime.end.p0(i64 4, ptr %4) #8
  %32 = load i32, ptr %2, align 4
  ret i32 %32
}