; Function Attrs: nounwind uwtable
define range(i32 0, 2) i32 @Sim_UtilMatrsAreDisjoint(ptr noundef readonly captures(none) %0) local_unnamed_addr #7 {
  %2 = getelementptr inbounds nuw i8, ptr %0, i64 56
  %3 = getelementptr inbounds nuw i8, ptr %0, i64 20
  %4 = load i32, ptr %3, align 4, !tbaa !93
  %5 = icmp sgt i32 %4, 0
  br i1 %5, label %.lr.ph, label %._crit_edge

.lr.ph:                                           ; preds = %1
  %6 = getelementptr inbounds nuw i8, ptr %0, i64 64
  br label %11

7:                                                ; preds = %11
  %indvars.iv.next = add nuw nsw i64 %indvars.iv, 1
  %8 = load i32, ptr %3, align 4, !tbaa !93
  %9 = sext i32 %8 to i64
  %10 = icmp slt i64 %indvars.iv.next, %9
  br i1 %10, label %11, label %._crit_edge, !llvm.loop !110

11:                                               ; preds = %.lr.ph, %7
  %indvars.iv = phi i64 [ 0, %.lr.ph ], [ %indvars.iv.next, %7 ]
  %12 = load ptr, ptr %2, align 8, !tbaa !95
  %13 = getelementptr i8, ptr %12, i64 8
  %.val8 = load ptr, ptr %13, align 8, !tbaa !9
  %14 = getelementptr inbounds nuw ptr, ptr %.val8, i64 %indvars.iv
  %15 = load ptr, ptr %14, align 8, !tbaa !10
  %16 = load ptr, ptr %6, align 8, !tbaa !106
  %17 = getelementptr i8, ptr %16, i64 8
  %.val = load ptr, ptr %17, align 8, !tbaa !9
  %18 = getelementptr inbounds nuw ptr, ptr %.val, i64 %indvars.iv
  %19 = load ptr, ptr %18, align 8, !tbaa !10
  %20 = tail call i32 @Extra_BitMatrixIsDisjoint(ptr noundef %15, ptr noundef %19) #18
  %.not = icmp eq i32 %20, 0
  br i1 %.not, label %._crit_edge, label %7

._crit_edge:                                      ; preds = %11, %7, %1
  %.07 = phi i32 [ 1, %1 ], [ 1, %7 ], [ 0, %11 ]
  ret i32 %.07
}